target datalayout = "e-m:e-p270:32:32-p271:32:32-p272:64:64-i64:64-i128:128-f80:128-n8:16:32:64-S128"
target triple = "x86_64-pc-linux-gnu"

%"struct.faiss::SplitMix64RandomGenerator" = type { i64 }

@_ZN5faiss25SplitMix64RandomGeneratorC1El = unnamed_addr alias void (ptr, i64), ptr @_ZN5faiss25SplitMix64RandomGeneratorC2El

; Function Attrs: mustprogress nounwind uwtable
define noundef i64 @_ZN5faiss25SplitMix64RandomGenerator4nextEv(ptr noundef nonnull align 8 dereferenceable(8) %0) #3 align 2 {
  %2 = alloca ptr, align 8
  %3 = alloca i64, align 8
  store ptr %0, ptr %2, align 8, !tbaa !21
  %4 = load ptr, ptr %2, align 8
  call void @llvm.lifetime.start.p0(i64 8, ptr %3) #5
  %5 = getelementptr inbounds nuw %"struct.faiss::SplitMix64RandomGenerator", ptr %4, i32 0, i32 0
  %6 = load i64, ptr %5, align 8, !tbaa !23
  %7 = add i64 %6, -7046029254386353131
  store i64 %7, ptr %5, align 8, !tbaa !23
  store i64 %7, ptr %3, align 8, !tbaa !9
  %8 = load i64, ptr %3, align 8, !tbaa !9
  %9 = load i64, ptr %3, align 8, !tbaa !9
  %10 = lshr i64 %9, 30
  %11 = xor i64 %8, %10
  %12 = mul i64 %11, -4658895280553007687
  store i64 %12, ptr %3, align 8, !tbaa !9
  %13 = load i64, ptr %3, align 8, !tbaa !9
  %14 = load i64, ptr %3, align 8, !tbaa !9
  %15 = lshr i64 %14, 27
  %16 = xor i64 %13, %15
  %17 = mul i64 %16, -7723592293110705685
  store i64 %17, ptr %3, align 8, !tbaa !9
  %18 = load i64, ptr %3, align 8, !tbaa !9
  %19 = load i64, ptr %3, align 8, !tbaa !9
  %20 = lshr i64 %19, 31
  %21 = xor i64 %18, %20
  call void @llvm.lifetime.end.p0(i64 8, ptr %3) #5
  ret i64 %21
}

; Function Attrs: inlinehint mustprogress nounwind uwtable
define linkonce_odr void @_ZSt4swapIiENSt9enable_ifIXsr6__and_ISt6__not_ISt15__is_tuple_likeIT_EESt21is_move_constructibleIS3_ESt18is_move_assignableIS3_EEE5valueEvE4typeERS3_SC_(ptr noundef nonnull align 4 dereferenceable(4) %0, ptr noundef nonnull align 4 dereferenceable(4) %1) #9 comdat {
  %3 = alloca ptr, align 8
  %4 = alloca ptr, align 8
  %5 = alloca i32, align 4
  store ptr %0, ptr %3, align 8, !tbaa !27
  store ptr %1, ptr %4, align 8, !tbaa !27
  call void @llvm.lifetime.start.p0(i64 4, ptr %5) #5
  %6 = load ptr, ptr %3, align 8, !tbaa !27
  %7 = load i32, ptr %6, align 4, !tbaa !19
  store i32 %7, ptr %5, align 4, !tbaa !19
  %8 = load ptr, ptr %4, align 8, !tbaa !27
  %9 = load i32, ptr %8, align 4, !tbaa !19
  %10 = load ptr, ptr %3, align 8, !tbaa !27
  store i32 %9, ptr %10, align 4, !tbaa !19
  %11 = load i32, ptr %5, align 4, !tbaa !19
  %12 = load ptr, ptr %4, align 8, !tbaa !27
  store i32 %11, ptr %12, align 4, !tbaa !19
  call void @llvm.lifetime.end.p0(i64 4, ptr %5) #5
  ret void
}

; Function Attrs: mustprogress uwtable
define noundef i32 @_ZN5faiss25SplitMix64RandomGenerator8rand_intEi(ptr noundef nonnull align 8 dereferenceable(8) %0, i32 noundef %1) #0 align 2 {
  %3 = alloca ptr, align 8
  %4 = alloca i32, align 4
  store ptr %0, ptr %3, align 8, !tbaa !21
  store i32 %1, ptr %4, align 4, !tbaa !19
  %5 = load ptr, ptr %3, align 8
  %6 = call noundef i64 @_ZN5faiss25SplitMix64RandomGenerator4nextEv(ptr noundef nonnull align 8 dereferenceable(8) %5)
  %7 = load i32, ptr %4, align 4, !tbaa !19
  %8 = sext i32 %7 to i64
  %9 = urem i64 %6, %8
  %10 = trunc i64 %9 to i32
  ret i32 %10
}

; Function Attrs: mustprogress uwtable
define void @_ZN5faiss20rand_perm_splitmix64EPiml(ptr noundef %0, i64 noundef %1, i64 noundef %2) #0 {
  %4 = alloca ptr, align 8
  %5 = alloca i64, align 8
  %6 = alloca i64, align 8
  %7 = alloca i64, align 8
  %8 = alloca %"struct.faiss::SplitMix64RandomGenerator", align 8
  %9 = alloca i64, align 8
  %10 = alloca i32, align 4
  store ptr %0, ptr %4, align 8, !tbaa !27
  store i64 %1, ptr %5, align 8, !tbaa !9
  store i64 %2, ptr %6, align 8, !tbaa !9
  call void @llvm.lifetime.start.p0(i64 8, ptr %7) #5
  store i64 0, ptr %7, align 8, !tbaa !9
  br label %11

11:                                               ; preds = %22, %3
  %12 = load i64, ptr %7, align 8, !tbaa !9
  %13 = load i64, ptr %5, align 8, !tbaa !9
  %14 = icmp ult i64 %12, %13
  br i1 %14, label %16, label %15

15:                                               ; preds = %11
  call void @llvm.lifetime.end.p0(i64 8, ptr %7) #5
  br label %25

16:                                               ; preds = %11
  %17 = load i64, ptr %7, align 8, !tbaa !9
  %18 = trunc i64 %17 to i32
  %19 = load ptr, ptr %4, align 8, !tbaa !27
  %20 = load i64, ptr %7, align 8, !tbaa !9
  %21 = getelementptr inbounds nuw i32, ptr %19, i64 %20
  store i32 %18, ptr %21, align 4, !tbaa !19
  br label %22

22:                                               ; preds = %16
  %23 = load i64, ptr %7, align 8, !tbaa !9
  %24 = add i64 %23, 1
  store i64 %24, ptr %7, align 8, !tbaa !9
  br label %11, !llvm.loop !48

25:                                               ; preds = %15
  call void @llvm.lifetime.start.p0(i64 8, ptr %8) #5
  %26 = load i64, ptr %6, align 8, !tbaa !9
  call void @_ZN5faiss25SplitMix64RandomGeneratorC1El(ptr noundef nonnull align 8 dereferenceable(8) %8, i64 noundef %26)
  call void @llvm.lifetime.start.p0(i64 8, ptr %9) #5
  store i64 0, ptr %9, align 8, !tbaa !9
  br label %27

27:                                               ; preds = %50, %25
  %28 = load i64, ptr %9, align 8, !tbaa !9
  %29 = add i64 %28, 1
  %30 = load i64, ptr %5, align 8, !tbaa !9
  %31 = icmp ult i64 %29, %30
  br i1 %31, label %33, label %32

32:                                               ; preds = %27
  call void @llvm.lifetime.end.p0(i64 8, ptr %9) #5
  br label %53

33:                                               ; preds = %27
  call void @llvm.lifetime.start.p0(i64 4, ptr %10) #5
  %34 = load i64, ptr %9, align 8, !tbaa !9
  %35 = load i64, ptr %5, align 8, !tbaa !9
  %36 = load i64, ptr %9, align 8, !tbaa !9
  %37 = sub i64 %35, %36
  %38 = trunc i64 %37 to i32
  %39 = call noundef i32 @_ZN5faiss25SplitMix64RandomGenerator8rand_intEi(ptr noundef nonnull align 8 dereferenceable(8) %8, i32 noundef %38)
  %40 = sext i32 %39 to i64
  %41 = add i64 %34, %40
  %42 = trunc i64 %41 to i32
  store i32 %42, ptr %10, align 4, !tbaa !19
  %43 = load ptr, ptr %4, align 8, !tbaa !27
  %44 = load i64, ptr %9, align 8, !tbaa !9
  %45 = getelementptr inbounds nuw i32, ptr %43, i64 %44
  %46 = load ptr, ptr %4, align 8, !tbaa !27
  %47 = load i32, ptr %10, align 4, !tbaa !19
  %48 = sext i32 %47 to i64
  %49 = getelementptr inbounds i32, ptr %46, i64 %48
  call void @_ZSt4swapIiENSt9enable_ifIXsr6__and_ISt6__not_ISt15__is_tuple_likeIT_EESt21is_move_constructibleIS3_ESt18is_move_assignableIS3_EEE5valueEvE4typeERS3_SC_(ptr noundef nonnull align 4 dereferenceable(4) %45, ptr noundef nonnull align 4 dereferenceable(4) %49) #5
  call void @llvm.lifetime.end.p0(i64 4, ptr %10) #5
  br label %50

50:                                               ; preds = %33
  %51 = load i64, ptr %9, align 8, !tbaa !9
  %52 = add i64 %51, 1
  store i64 %52, ptr %9, align 8, !tbaa !9
  br label %27, !llvm.loop !49

53:                                               ; preds = %32
  call void @llvm.lifetime.end.p0(i64 8, ptr %8) #5
  ret void
}