; Function Attrs: mustprogress uwtable
define void @_ZN5faiss20rand_perm_splitmix64EPiml(ptr noundef captures(none) %0, i64 noundef %1, i64 noundef %2) local_unnamed_addr #2 {
  %4 = alloca %"struct.faiss::SplitMix64RandomGenerator", align 8
  %.not = icmp eq i64 %1, 0
  br i1 %.not, label %._crit_edge.thread, label %.lr.ph

._crit_edge.thread:                               ; preds = %3
  call void @llvm.lifetime.start.p0(i64 8, ptr nonnull %4) #6
  call void @_ZN5faiss25SplitMix64RandomGeneratorC1El(ptr noundef nonnull align 8 dereferenceable(8) %4, i64 noundef %2)
  br label %._crit_edge24

._crit_edge:                                      ; preds = %.lr.ph
  call void @llvm.lifetime.start.p0(i64 8, ptr nonnull %4) #6
  call void @_ZN5faiss25SplitMix64RandomGeneratorC1El(ptr noundef nonnull align 8 dereferenceable(8) %4, i64 noundef %2)
  %.not26 = icmp eq i64 %1, 1
  br i1 %.not26, label %._crit_edge24, label %.lr.ph23.preheader

.lr.ph23.preheader:                               ; preds = %._crit_edge
  %.promoted = load i64, ptr %4, align 8
  br label %.lr.ph23

.lr.ph:                                           ; preds = %3, %.lr.ph
  %.020 = phi i64 [ %7, %.lr.ph ], [ 0, %3 ]
  %5 = trunc i64 %.020 to i32
  %6 = getelementptr inbounds nuw i32, ptr %0, i64 %.020
  store i32 %5, ptr %6, align 4, !tbaa !19
  %7 = add nuw i64 %.020, 1
  %exitcond.not = icmp eq i64 %7, %1
  br i1 %exitcond.not, label %._crit_edge, label %.lr.ph, !llvm.loop !34

._crit_edge24:                                    ; preds = %.lr.ph23, %._crit_edge.thread, %._crit_edge
  call void @llvm.lifetime.end.p0(i64 8, ptr nonnull %4) #6
  ret void

.lr.ph23:                                         ; preds = %.lr.ph23.preheader, %.lr.ph23
  %8 = phi i64 [ %28, %.lr.ph23 ], [ 1, %.lr.ph23.preheader ]
  %.01621 = phi i64 [ %8, %.lr.ph23 ], [ 0, %.lr.ph23.preheader ]
  %9 = phi i64 [ %11, %.lr.ph23 ], [ %.promoted, %.lr.ph23.preheader ]
  %10 = sub i64 %1, %.01621
  %11 = add i64 %9, -7046029254386353131
  %12 = lshr i64 %11, 30
  %13 = xor i64 %12, %11
  %14 = mul i64 %13, -4658895280553007687
  %15 = lshr i64 %14, 27
  %16 = xor i64 %15, %14
  %17 = mul i64 %16, -7723592293110705685
  %18 = lshr i64 %17, 31
  %19 = xor i64 %18, %17
  %sext = shl i64 %10, 32
  %20 = ashr exact i64 %sext, 32
  %21 = urem i64 %19, %20
  %22 = add i64 %21, %.01621
  %23 = getelementptr inbounds nuw i32, ptr %0, i64 %.01621
  %sext19 = shl i64 %22, 32
  %24 = ashr exact i64 %sext19, 30
  %25 = getelementptr inbounds i8, ptr %0, i64 %24
  %26 = load i32, ptr %23, align 4, !tbaa !19
  %27 = load i32, ptr %25, align 4, !tbaa !19
  store i32 %27, ptr %23, align 4, !tbaa !19
  store i32 %26, ptr %25, align 4, !tbaa !19
  %28 = add nuw i64 %8, 1
  %exitcond25.not = icmp eq i64 %28, %1
  br i1 %exitcond25.not, label %._crit_edge24, label %.lr.ph23, !llvm.loop !35
}